target datalayout = "e-m:e-p270:32:32-p271:32:32-p272:64:64-i64:64-i128:128-f80:128-n8:16:32:64-S128"
target triple = "x86_64-pc-linux-gnu"

; Function Attrs: nounwind uwtable
define dso_local i32 @ACLStringHasSpaces(ptr noundef %0, i64 noundef %1) #0 {
  %3 = alloca i32, align 4
  %4 = alloca ptr, align 8
  %5 = alloca i64, align 8
  %6 = alloca i64, align 8
  %7 = alloca i32, align 4
  store ptr %0, ptr %4, align 8, !tbaa !5
  store i64 %1, ptr %5, align 8, !tbaa !10
  call void @llvm.lifetime.start.p0(i64 8, ptr %6) #14
  store i64 0, ptr %6, align 8, !tbaa !10
  br label %8

8:                                                ; preds = %36, %2
  %9 = load i64, ptr %6, align 8, !tbaa !10
  %10 = load i64, ptr %5, align 8, !tbaa !10
  %11 = icmp ult i64 %9, %10
  br i1 %11, label %13, label %12

12:                                               ; preds = %8
  store i32 2, ptr %7, align 4
  br label %39

13:                                               ; preds = %8
  %14 = call ptr @__ctype_b_loc() #16
  %15 = load ptr, ptr %14, align 8, !tbaa !26
  %16 = load ptr, ptr %4, align 8, !tbaa !5
  %17 = load i64, ptr %6, align 8, !tbaa !10
  %18 = getelementptr inbounds nuw i8, ptr %16, i64 %17
  %19 = load i8, ptr %18, align 1, !tbaa !22
  %20 = sext i8 %19 to i32
  %21 = sext i32 %20 to i64
  %22 = getelementptr inbounds i16, ptr %15, i64 %21
  %23 = load i16, ptr %22, align 2, !tbaa !28
  %24 = zext i16 %23 to i32
  %25 = and i32 %24, 8192
  %26 = icmp ne i32 %25, 0
  br i1 %26, label %34, label %27

27:                                               ; preds = %13
  %28 = load ptr, ptr %4, align 8, !tbaa !5
  %29 = load i64, ptr %6, align 8, !tbaa !10
  %30 = getelementptr inbounds nuw i8, ptr %28, i64 %29
  %31 = load i8, ptr %30, align 1, !tbaa !22
  %32 = sext i8 %31 to i32
  %33 = icmp eq i32 %32, 0
  br i1 %33, label %34, label %35

34:                                               ; preds = %27, %13
  store i32 1, ptr %3, align 4
  store i32 1, ptr %7, align 4
  br label %39

35:                                               ; preds = %27
  br label %36

36:                                               ; preds = %35
  %37 = load i64, ptr %6, align 8, !tbaa !10
  %38 = add i64 %37, 1
  store i64 %38, ptr %6, align 8, !tbaa !10
  br label %8, !llvm.loop !30

39:                                               ; preds = %34, %12
  call void @llvm.lifetime.end.p0(i64 8, ptr %6) #14
  %40 = load i32, ptr %7, align 4
  switch i32 %40, label %44 [
    i32 2, label %41
    i32 1, label %42
  ]

41:                                               ; preds = %39
  store i32 0, ptr %3, align 4
  br label %42

42:                                               ; preds = %41, %39
  %43 = load i32, ptr %3, align 4
  ret i32 %43

44:                                               ; preds = %39
  unreachable
}