; Function Attrs: nofree nosync nounwind memory(read, inaccessiblemem: none) uwtable
define dso_local range(i32 0, 2) i32 @ACLStringHasSpaces(ptr noundef readonly captures(none) %0, i64 noundef %1) local_unnamed_addr #6 {
  %.not1011.not = icmp eq i64 %1, 0
  br i1 %.not1011.not, label %._crit_edge, label %.lr.ph

.lr.ph:                                           ; preds = %2
  %3 = tail call ptr @__ctype_b_loc() #28
  %4 = load ptr, ptr %3, align 8, !tbaa !23
  br label %7

5:                                                ; preds = %7
  %6 = add nuw i64 %.0812, 1
  %exitcond.not = icmp eq i64 %6, %1
  br i1 %exitcond.not, label %._crit_edge, label %7, !llvm.loop !25

7:                                                ; preds = %.lr.ph, %5
  %.0812 = phi i64 [ 0, %.lr.ph ], [ %6, %5 ]
  %8 = getelementptr inbounds nuw i8, ptr %0, i64 %.0812
  %9 = load i8, ptr %8, align 1, !tbaa !19
  %10 = sext i8 %9 to i64
  %11 = getelementptr inbounds i16, ptr %4, i64 %10
  %12 = load i16, ptr %11, align 2, !tbaa !26
  %13 = and i16 %12, 8192
  %.not = icmp ne i16 %13, 0
  %14 = icmp eq i8 %9, 0
  %or.cond = or i1 %14, %.not
  br i1 %or.cond, label %._crit_edge, label %5

._crit_edge:                                      ; preds = %5, %7, %2
  %.not10.lcssa = phi i32 [ 0, %2 ], [ 1, %7 ], [ 0, %5 ]
  ret i32 %.not10.lcssa
}